target datalayout = "e-m:e-p270:32:32-p271:32:32-p272:64:64-i64:64-i128:128-f80:128-n8:16:32:64-S128"
target triple = "x86_64-pc-linux-gnu"

%struct._packet_info = type { ptr, ptr, i32, i32, %struct.nstime_t, %struct.nstime_t, %struct.nstime_t, i8, ptr, ptr, ptr, ptr, %struct._address, %struct._address, %struct._address, %struct._address, %struct._address, %struct._address, i32, ptr, i8, [3 x i8], %struct.anon, i32, i32, i32, i32, ptr, i8, ptr, ptr, i16, i16, i32, i32, i16, i32, i32, ptr, ptr, ptr, i8, i8, i16, i16, i16, i32, i16, i16, ptr, ptr, ptr, ptr, ptr, i32, i32 }
%struct.nstime_t = type { i64, i32 }
%struct._address = type { i32, i32, ptr, ptr }
%struct.anon = type { i8, [3 x i8] }

@hf_twamp_seq_number = internal global i32 0, align 4
@hf_twamp_error_estimate = internal global i32 0, align 4
@hf_twamp_sender_timestamp = internal global i32 0, align 4
@hf_twamp_padding = internal global i32 0, align 4
@ett_owamp_test = internal global i32 0, align 4
@ett_twamp_error_estimate = internal global i32 0, align 4
@.str.98 = private unnamed_addr constant [11 x i8] c"OWAMP-Test\00", align 1
@proto_owamp_test = internal global i32 0, align 4
@.str.120 = private unnamed_addr constant [19 x i8] c"Measurement packet\00", align 1
@twamp_error_estimate_flags = internal constant [5 x ptr] [ptr @hf_twamp_error_estimate_b15, ptr @hf_twamp_error_estimate_b14, ptr @hf_twamp_error_estimate_scale, ptr @hf_twamp_error_estimate_multiplier, ptr null], align 16

; Function Attrs: null_pointer_is_valid sspstrong uwtable
define internal i32 @dissect_owamp_test(ptr noundef %0, ptr noundef %1, ptr noundef %2, ptr noundef %3) #0 {
  %5 = alloca ptr, align 8
  %6 = alloca ptr, align 8
  %7 = alloca ptr, align 8
  %8 = alloca ptr, align 8
  %9 = alloca ptr, align 8
  %10 = alloca ptr, align 8
  %11 = alloca i32, align 4
  %12 = alloca i32, align 4
  store ptr %0, ptr %5, align 8
  store ptr %1, ptr %6, align 8
  store ptr %2, ptr %7, align 8
  store ptr %3, ptr %8, align 8
  call void @llvm.lifetime.start.p0(i64 8, ptr %9) #11
  store ptr null, ptr %9, align 8
  call void @llvm.lifetime.start.p0(i64 8, ptr %10) #11
  store ptr null, ptr %10, align 8
  call void @llvm.lifetime.start.p0(i64 4, ptr %11) #11
  store i32 0, ptr %11, align 4
  call void @llvm.lifetime.start.p0(i64 4, ptr %12) #11
  store i32 0, ptr %12, align 4
  %13 = load ptr, ptr %6, align 8
  %14 = getelementptr inbounds nuw %struct._packet_info, ptr %13, i32 0, i32 1
  %15 = load ptr, ptr %14, align 8
  call void @col_set_str(ptr noundef %15, i32 noundef 35, ptr noundef @.str.98)
  %16 = load ptr, ptr %6, align 8
  %17 = getelementptr inbounds nuw %struct._packet_info, ptr %16, i32 0, i32 1
  %18 = load ptr, ptr %17, align 8
  call void @col_clear(ptr noundef %18, i32 noundef 25)
  %19 = load ptr, ptr %7, align 8
  %20 = load i32, ptr @proto_owamp_test, align 4
  %21 = load ptr, ptr %5, align 8
  %22 = call ptr @proto_tree_add_item(ptr noundef %19, i32 noundef %20, ptr noundef %21, i32 noundef 0, i32 noundef -1, i32 noundef 0)
  store ptr %22, ptr %9, align 8
  %23 = load ptr, ptr %9, align 8
  %24 = load i32, ptr @ett_owamp_test, align 4
  %25 = call ptr @proto_item_add_subtree(ptr noundef %23, i32 noundef %24)
  store ptr %25, ptr %10, align 8
  %26 = load ptr, ptr %6, align 8
  %27 = getelementptr inbounds nuw %struct._packet_info, ptr %26, i32 0, i32 1
  %28 = load ptr, ptr %27, align 8
  call void @col_append_str(ptr noundef %28, i32 noundef 25, ptr noundef @.str.120)
  %29 = load ptr, ptr %10, align 8
  %30 = load i32, ptr @hf_twamp_seq_number, align 4
  %31 = load ptr, ptr %5, align 8
  %32 = load i32, ptr %11, align 4
  %33 = call ptr @proto_tree_add_item(ptr noundef %29, i32 noundef %30, ptr noundef %31, i32 noundef %32, i32 noundef 4, i32 noundef 0)
  %34 = load i32, ptr %11, align 4
  %35 = add i32 %34, 4
  store i32 %35, ptr %11, align 4
  %36 = load ptr, ptr %5, align 8
  %37 = load i32, ptr %11, align 4
  %38 = add i32 %37, 8
  %39 = call zeroext i16 @tvb_get_ntohs(ptr noundef %36, i32 noundef %38)
  %40 = zext i16 %39 to i32
  %41 = and i32 %40, 16384
  %42 = icmp ne i32 %41, 0
  br i1 %42, label %43, label %49

43:                                               ; preds = %4
  %44 = load ptr, ptr %10, align 8
  %45 = load i32, ptr @hf_twamp_sender_timestamp, align 4
  %46 = load ptr, ptr %5, align 8
  %47 = load i32, ptr %11, align 4
  %48 = call ptr @proto_tree_add_item(ptr noundef %44, i32 noundef %45, ptr noundef %46, i32 noundef %47, i32 noundef 8, i32 noundef 0)
  br label %55

49:                                               ; preds = %4
  %50 = load ptr, ptr %10, align 8
  %51 = load i32, ptr @hf_twamp_sender_timestamp, align 4
  %52 = load ptr, ptr %5, align 8
  %53 = load i32, ptr %11, align 4
  %54 = call ptr @proto_tree_add_item(ptr noundef %50, i32 noundef %51, ptr noundef %52, i32 noundef %53, i32 noundef 8, i32 noundef 2)
  br label %55

55:                                               ; preds = %49, %43
  %56 = load i32, ptr %11, align 4
  %57 = add i32 %56, 8
  store i32 %57, ptr %11, align 4
  %58 = load ptr, ptr %10, align 8
  %59 = load ptr, ptr %5, align 8
  %60 = load i32, ptr %11, align 4
  %61 = load i32, ptr @hf_twamp_error_estimate, align 4
  %62 = load i32, ptr @ett_twamp_error_estimate, align 4
  %63 = call ptr @proto_tree_add_bitmask(ptr noundef %58, ptr noundef %59, i32 noundef %60, i32 noundef %61, i32 noundef %62, ptr noundef @twamp_error_estimate_flags, i32 noundef 0)
  %64 = load i32, ptr %11, align 4
  %65 = add i32 %64, 2
  store i32 %65, ptr %11, align 4
  %66 = load ptr, ptr %5, align 8
  %67 = call i32 @tvb_reported_length(ptr noundef %66)
  %68 = load i32, ptr %11, align 4
  %69 = sub i32 %67, %68
  store i32 %69, ptr %12, align 4
  %70 = load i32, ptr %12, align 4
  %71 = icmp sgt i32 %70, 0
  br i1 %71, label %72, label %82

72:                                               ; preds = %55
  %73 = load ptr, ptr %10, align 8
  %74 = load i32, ptr @hf_twamp_padding, align 4
  %75 = load ptr, ptr %5, align 8
  %76 = load i32, ptr %11, align 4
  %77 = load i32, ptr %12, align 4
  %78 = call ptr @proto_tree_add_item(ptr noundef %73, i32 noundef %74, ptr noundef %75, i32 noundef %76, i32 noundef %77, i32 noundef 0)
  %79 = load i32, ptr %12, align 4
  %80 = load i32, ptr %11, align 4
  %81 = add i32 %80, %79
  store i32 %81, ptr %11, align 4
  br label %82

82:                                               ; preds = %72, %55
  %83 = load i32, ptr %11, align 4
  call void @llvm.lifetime.end.p0(i64 4, ptr %12) #11
  call void @llvm.lifetime.end.p0(i64 4, ptr %11) #11
  call void @llvm.lifetime.end.p0(i64 8, ptr %10) #11
  call void @llvm.lifetime.end.p0(i64 8, ptr %9) #11
  ret i32 %83
}