; Function Attrs: null_pointer_is_valid sspstrong uwtable
define internal range(i32 14, -2147483634) i32 @dissect_owamp_test(ptr noundef %0, ptr noundef readonly captures(none) %1, ptr noundef %2, ptr readnone captures(none) %3) #0 {
  %5 = getelementptr inbounds nuw i8, ptr %1, i64 8
  %6 = load ptr, ptr %5, align 8
  tail call void @col_set_str(ptr noundef %6, i32 noundef 35, ptr noundef nonnull @.str.98)
  %7 = load ptr, ptr %5, align 8
  tail call void @col_clear(ptr noundef %7, i32 noundef 25)
  %8 = load i32, ptr @proto_owamp_test, align 4
  %9 = tail call ptr @proto_tree_add_item(ptr noundef %2, i32 noundef %8, ptr noundef %0, i32 noundef 0, i32 noundef -1, i32 noundef 0)
  %10 = load i32, ptr @ett_owamp_test, align 4
  %11 = tail call ptr @proto_item_add_subtree(ptr noundef %9, i32 noundef %10)
  %12 = load ptr, ptr %5, align 8
  tail call void @col_append_str(ptr noundef %12, i32 noundef 25, ptr noundef nonnull @.str.120)
  %13 = load i32, ptr @hf_twamp_seq_number, align 4
  %14 = tail call ptr @proto_tree_add_item(ptr noundef %11, i32 noundef %13, ptr noundef %0, i32 noundef 0, i32 noundef 4, i32 noundef 0)
  %15 = tail call zeroext i16 @tvb_get_ntohs(ptr noundef %0, i32 noundef 12)
  %16 = load i32, ptr @hf_twamp_sender_timestamp, align 4
  %17 = lshr i16 %15, 13
  %18 = and i16 %17, 2
  %19 = xor i16 %18, 2
  %. = zext nneg i16 %19 to i32
  %20 = tail call ptr @proto_tree_add_item(ptr noundef %11, i32 noundef %16, ptr noundef %0, i32 noundef 4, i32 noundef 8, i32 noundef %.)
  %21 = load i32, ptr @hf_twamp_error_estimate, align 4
  %22 = load i32, ptr @ett_twamp_error_estimate, align 4
  %23 = tail call ptr @proto_tree_add_bitmask(ptr noundef %11, ptr noundef %0, i32 noundef 12, i32 noundef %21, i32 noundef %22, ptr noundef nonnull @twamp_error_estimate_flags, i32 noundef 0)
  %24 = tail call i32 @tvb_reported_length(ptr noundef %0)
  %25 = add i32 %24, -14
  %26 = icmp sgt i32 %25, 0
  br i1 %26, label %27, label %30

27:                                               ; preds = %4
  %28 = load i32, ptr @hf_twamp_padding, align 4
  %29 = tail call ptr @proto_tree_add_item(ptr noundef %11, i32 noundef %28, ptr noundef %0, i32 noundef 14, i32 noundef %25, i32 noundef 0)
  br label %30

30:                                               ; preds = %27, %4
  %.0 = phi i32 [ %24, %27 ], [ 14, %4 ]
  ret i32 %.0
}